(lp0
ccopy_reg
_reconstructor
p1
(c__main__
iteminfo
p2
c__builtin__
object
p3
Ntp4
Rp5
(dp6
S'item'
p7
S'SAMPLE ITEM'
p8
sS'price'
p9
S'500.0'
p10
sS'disc'
p11
S'25.0'
p12
sS'icode'
p13
S'SIO1'
p14
sS'qty'
p15
S'10000000.0'
p16
sba.